target datalayout = "e-m:e-p270:32:32-p271:32:32-p272:64:64-i64:64-i128:128-f80:128-n8:16:32:64-S128"
target triple = "x86_64-pc-linux-gnu"

@Curl_cmalloc = external global ptr, align 8

; Function Attrs: nounwind uwtable
define internal ptr @auth_digest_string_quoted(ptr noundef %0) #0 {
  %2 = alloca ptr, align 8
  %3 = alloca ptr, align 8
  %4 = alloca ptr, align 8
  %5 = alloca i64, align 8
  %6 = alloca ptr, align 8
  store ptr %0, ptr %2, align 8, !tbaa !3
  call void @llvm.lifetime.start.p0(i64 8, ptr %3) #7
  call void @llvm.lifetime.start.p0(i64 8, ptr %4) #7
  %7 = load ptr, ptr %2, align 8, !tbaa !3
  store ptr %7, ptr %4, align 8, !tbaa !3
  call void @llvm.lifetime.start.p0(i64 8, ptr %5) #7
  store i64 1, ptr %5, align 8, !tbaa !26
  br label %8

8:                                                ; preds = %27, %1
  %9 = load ptr, ptr %4, align 8, !tbaa !3
  %10 = load i8, ptr %9, align 1, !tbaa !14
  %11 = icmp ne i8 %10, 0
  br i1 %11, label %12, label %30

12:                                               ; preds = %8
  %13 = load i64, ptr %5, align 8, !tbaa !26
  %14 = add i64 %13, 1
  store i64 %14, ptr %5, align 8, !tbaa !26
  %15 = load ptr, ptr %4, align 8, !tbaa !3
  %16 = load i8, ptr %15, align 1, !tbaa !14
  %17 = sext i8 %16 to i32
  %18 = icmp eq i32 %17, 34
  br i1 %18, label %24, label %19

19:                                               ; preds = %12
  %20 = load ptr, ptr %4, align 8, !tbaa !3
  %21 = load i8, ptr %20, align 1, !tbaa !14
  %22 = sext i8 %21 to i32
  %23 = icmp eq i32 %22, 92
  br i1 %23, label %24, label %27

24:                                               ; preds = %19, %12
  %25 = load i64, ptr %5, align 8, !tbaa !26
  %26 = add i64 %25, 1
  store i64 %26, ptr %5, align 8, !tbaa !26
  br label %27

27:                                               ; preds = %24, %19
  %28 = load ptr, ptr %4, align 8, !tbaa !3
  %29 = getelementptr inbounds nuw i8, ptr %28, i32 1
  store ptr %29, ptr %4, align 8, !tbaa !3
  br label %8, !llvm.loop !129

30:                                               ; preds = %8
  %31 = load ptr, ptr @Curl_cmalloc, align 8, !tbaa !104
  %32 = load i64, ptr %5, align 8, !tbaa !26
  %33 = call ptr %31(i64 noundef %32)
  store ptr %33, ptr %3, align 8, !tbaa !3
  %34 = load ptr, ptr %3, align 8, !tbaa !3
  %35 = icmp ne ptr %34, null
  br i1 %35, label %36, label %64

36:                                               ; preds = %30
  call void @llvm.lifetime.start.p0(i64 8, ptr %6) #7
  %37 = load ptr, ptr %3, align 8, !tbaa !3
  store ptr %37, ptr %6, align 8, !tbaa !3
  %38 = load ptr, ptr %2, align 8, !tbaa !3
  store ptr %38, ptr %4, align 8, !tbaa !3
  br label %39

39:                                               ; preds = %56, %36
  %40 = load ptr, ptr %4, align 8, !tbaa !3
  %41 = load i8, ptr %40, align 1, !tbaa !14
  %42 = icmp ne i8 %41, 0
  br i1 %42, label %43, label %62

43:                                               ; preds = %39
  %44 = load ptr, ptr %4, align 8, !tbaa !3
  %45 = load i8, ptr %44, align 1, !tbaa !14
  %46 = sext i8 %45 to i32
  %47 = icmp eq i32 %46, 34
  br i1 %47, label %53, label %48

48:                                               ; preds = %43
  %49 = load ptr, ptr %4, align 8, !tbaa !3
  %50 = load i8, ptr %49, align 1, !tbaa !14
  %51 = sext i8 %50 to i32
  %52 = icmp eq i32 %51, 92
  br i1 %52, label %53, label %56

53:                                               ; preds = %48, %43
  %54 = load ptr, ptr %6, align 8, !tbaa !3
  %55 = getelementptr inbounds nuw i8, ptr %54, i32 1
  store ptr %55, ptr %6, align 8, !tbaa !3
  store i8 92, ptr %54, align 1, !tbaa !14
  br label %56

56:                                               ; preds = %53, %48
  %57 = load ptr, ptr %4, align 8, !tbaa !3
  %58 = getelementptr inbounds nuw i8, ptr %57, i32 1
  store ptr %58, ptr %4, align 8, !tbaa !3
  %59 = load i8, ptr %57, align 1, !tbaa !14
  %60 = load ptr, ptr %6, align 8, !tbaa !3
  %61 = getelementptr inbounds nuw i8, ptr %60, i32 1
  store ptr %61, ptr %6, align 8, !tbaa !3
  store i8 %59, ptr %60, align 1, !tbaa !14
  br label %39, !llvm.loop !130

62:                                               ; preds = %39
  %63 = load ptr, ptr %6, align 8, !tbaa !3
  store i8 0, ptr %63, align 1, !tbaa !14
  call void @llvm.lifetime.end.p0(i64 8, ptr %6) #7
  br label %64

64:                                               ; preds = %62, %30
  %65 = load ptr, ptr %3, align 8, !tbaa !3
  call void @llvm.lifetime.end.p0(i64 8, ptr %5) #7
  call void @llvm.lifetime.end.p0(i64 8, ptr %4) #7
  call void @llvm.lifetime.end.p0(i64 8, ptr %3) #7
  ret ptr %65
}