; Function Attrs: nounwind uwtable
define internal fastcc ptr @auth_digest_string_quoted(ptr noundef readonly captures(none) %0) unnamed_addr #3 {
  br label %2

2:                                                ; preds = %9, %1
  %.020 = phi ptr [ %0, %1 ], [ %10, %9 ]
  %.018 = phi i64 [ 1, %1 ], [ %.119, %9 ]
  %3 = load i8, ptr %.020, align 1, !tbaa !3
  switch i8 %3, label %4 [
    i8 0, label %11
    i8 34, label %7
  ]

4:                                                ; preds = %2
  %5 = add i64 %.018, 1
  %6 = icmp eq i8 %3, 92
  br i1 %6, label %7, label %9

7:                                                ; preds = %2, %4
  %8 = add i64 %.018, 2
  br label %9

9:                                                ; preds = %7, %4
  %.119 = phi i64 [ %8, %7 ], [ %5, %4 ]
  %10 = getelementptr inbounds nuw i8, ptr %.020, i64 1
  br label %2, !llvm.loop !111

11:                                               ; preds = %2
  %12 = load ptr, ptr @Curl_cmalloc, align 8, !tbaa !12
  %13 = tail call ptr %12(i64 noundef %.018) #10
  %.not27 = icmp eq ptr %13, null
  br i1 %.not27, label %22, label %.preheader

.preheader:                                       ; preds = %11, %17
  %.121 = phi ptr [ %19, %17 ], [ %0, %11 ]
  %.0 = phi ptr [ %20, %17 ], [ %13, %11 ]
  %14 = load i8, ptr %.121, align 1, !tbaa !3
  switch i8 %14, label %17 [
    i8 0, label %21
    i8 34, label %15
    i8 92, label %15
  ]

15:                                               ; preds = %.preheader, %.preheader
  %16 = getelementptr inbounds nuw i8, ptr %.0, i64 1
  store i8 92, ptr %.0, align 1, !tbaa !3
  %.pre = load i8, ptr %.121, align 1, !tbaa !3
  br label %17

17:                                               ; preds = %.preheader, %15
  %18 = phi i8 [ %.pre, %15 ], [ %14, %.preheader ]
  %.1 = phi ptr [ %16, %15 ], [ %.0, %.preheader ]
  %19 = getelementptr inbounds nuw i8, ptr %.121, i64 1
  %20 = getelementptr inbounds nuw i8, ptr %.1, i64 1
  store i8 %18, ptr %.1, align 1, !tbaa !3
  br label %.preheader, !llvm.loop !112

21:                                               ; preds = %.preheader
  store i8 0, ptr %.0, align 1, !tbaa !3
  br label %22

22:                                               ; preds = %21, %11
  ret ptr %13
}